; Function Attrs: nounwind uwtable
define internal void @write_marker_byte(ptr noundef %0, i32 noundef %1) #0 {
  %3 = getelementptr inbounds nuw i8, ptr %0, i64 40
  %4 = load ptr, ptr %3, align 8, !tbaa !38
  %5 = trunc i32 %1 to i8
  %6 = load ptr, ptr %4, align 8, !tbaa !39
  %7 = getelementptr inbounds nuw i8, ptr %6, i64 1
  store ptr %7, ptr %4, align 8, !tbaa !39
  store i8 %5, ptr %6, align 1, !tbaa !42
  %8 = getelementptr inbounds nuw i8, ptr %4, i64 8
  %9 = load i64, ptr %8, align 8, !tbaa !43
  %10 = add i64 %9, -1
  store i64 %10, ptr %8, align 8, !tbaa !43
  %11 = icmp eq i64 %10, 0
  br i1 %11, label %12, label %emit_byte.exit

12:                                               ; preds = %2
  %13 = getelementptr inbounds nuw i8, ptr %4, i64 24
  %14 = load ptr, ptr %13, align 8, !tbaa !44
  %15 = tail call i32 %14(ptr noundef nonnull %0) #3
  %.not.i = icmp eq i32 %15, 0
  br i1 %.not.i, label %16, label %emit_byte.exit

16:                                               ; preds = %12
  %17 = load ptr, ptr %0, align 8, !tbaa !45
  %18 = getelementptr inbounds nuw i8, ptr %17, i64 40
  store i32 24, ptr %18, align 8, !tbaa !46
  %19 = load ptr, ptr %17, align 8, !tbaa !49
  tail call void %19(ptr noundef nonnull %0) #3
  br label %emit_byte.exit

emit_byte.exit:                                   ; preds = %2, %12, %16
  ret void
}